; ModuleID = '60/946.c'
source_filename = "60/946.c"
target datalayout = "e-m:e-p270:32:32-p271:32:32-p272:64:64-i64:64-f80:128-n8:16:32:64-S128"
target triple = "x86_64-pc-linux-gnu"

@.str = private unnamed_addr constant [3 x i8] c"%d\00", align 1
@.str.1 = private unnamed_addr constant [6 x i8] c"empty\00", align 1
@.str.2 = private unnamed_addr constant [7 x i8] c"%d %d\0A\00", align 1

; Function Attrs: noinline nounwind uwtable
define dso_local i32 @main() #0 {
  %1 = alloca i32, align 4
  %2 = alloca i32, align 4
  %3 = alloca i32, align 4
  %4 = alloca i32, align 4
  %5 = alloca i32, align 4
  %6 = alloca i32, align 4
  %7 = alloca i32, align 4
  store i32 0, i32* %1, align 4
  %8 = call i32 (i8*, ...) @__isoc99_scanf(i8* getelementptr inbounds ([3 x i8], [3 x i8]* @.str, i64 0, i64 0), i32* %2)
  %9 = load i32, i32* %2, align 4
  %10 = icmp slt i32 %9, 5
  br i1 %10, label %11, label %13

11:                                               ; preds = %0
  %12 = call i32 (i8*, ...) @printf(i8* getelementptr inbounds ([6 x i8], [6 x i8]* @.str.1, i64 0, i64 0))
  br label %72

13:                                               ; preds = %0
  store i32 3, i32* %4, align 4
  br label %14

14:                                               ; preds = %68, %13
  %15 = load i32, i32* %4, align 4
  %16 = load i32, i32* %2, align 4
  %17 = sub nsw i32 %16, 2
  %18 = icmp sle i32 %15, %17
  br i1 %18, label %19, label %71

19:                                               ; preds = %14
  %20 = load i32, i32* %4, align 4
  %21 = sub nsw i32 %20, 1
  store i32 %21, i32* %3, align 4
  br label %22

22:                                               ; preds = %33, %19
  %23 = load i32, i32* %3, align 4
  %24 = icmp sgt i32 %23, 1
  br i1 %24, label %25, label %36

25:                                               ; preds = %22
  %26 = load i32, i32* %4, align 4
  %27 = load i32, i32* %3, align 4
  %28 = srem i32 %26, %27
  %29 = icmp eq i32 %28, 0
  br i1 %29, label %30, label %31

30:                                               ; preds = %25
  store i32 0, i32* %6, align 4
  br label %36

31:                                               ; preds = %25
  store i32 1, i32* %6, align 4
  br label %32

32:                                               ; preds = %31
  br label %33

33:                                               ; preds = %32
  %34 = load i32, i32* %3, align 4
  %35 = add nsw i32 %34, -1
  store i32 %35, i32* %3, align 4
  br label %22

36:                                               ; preds = %30, %22
  %37 = load i32, i32* %6, align 4
  %38 = icmp eq i32 %37, 1
  br i1 %38, label %39, label %59

39:                                               ; preds = %36
  %40 = load i32, i32* %4, align 4
  %41 = add nsw i32 %40, 2
  store i32 %41, i32* %5, align 4
  %42 = load i32, i32* %4, align 4
  %43 = sub nsw i32 %42, 1
  store i32 %43, i32* %3, align 4
  br label %44

44:                                               ; preds = %55, %39
  %45 = load i32, i32* %3, align 4
  %46 = icmp sgt i32 %45, 1
  br i1 %46, label %47, label %58

47:                                               ; preds = %44
  %48 = load i32, i32* %5, align 4
  %49 = load i32, i32* %3, align 4
  %50 = srem i32 %48, %49
  %51 = icmp eq i32 %50, 0
  br i1 %51, label %52, label %53

52:                                               ; preds = %47
  store i32 0, i32* %7, align 4
  br label %58

53:                                               ; preds = %47
  store i32 1, i32* %7, align 4
  br label %54

54:                                               ; preds = %53
  br label %55

55:                                               ; preds = %54
  %56 = load i32, i32* %3, align 4
  %57 = add nsw i32 %56, -1
  store i32 %57, i32* %3, align 4
  br label %44

58:                                               ; preds = %52, %44
  br label %60

59:                                               ; preds = %36
  store i32 0, i32* %7, align 4
  br label %60

60:                                               ; preds = %59, %58
  %61 = load i32, i32* %7, align 4
  %62 = icmp eq i32 %61, 1
  br i1 %62, label %63, label %67

63:                                               ; preds = %60
  %64 = load i32, i32* %4, align 4
  %65 = load i32, i32* %5, align 4
  %66 = call i32 (i8*, ...) @printf(i8* getelementptr inbounds ([7 x i8], [7 x i8]* @.str.2, i64 0, i64 0), i32 %64, i32 %65)
  br label %67

67:                                               ; preds = %63, %60
  br label %68

68:                                               ; preds = %67
  %69 = load i32, i32* %4, align 4
  %70 = add nsw i32 %69, 1
  store i32 %70, i32* %4, align 4
  br label %14

71:                                               ; preds = %14
  br label %72

72:                                               ; preds = %71, %11
  ret i32 0
}

declare dso_local i32 @__isoc99_scanf(i8*, ...) #1

declare dso_local i32 @printf(i8*, ...) #1


!llvm.module.flags = !{!0}
!llvm.ident = !{!1}

!0 = !{i32 1, !"wchar_size", i32 4}
!1 = !{!"clang version 10.0.0-4ubuntu1 "}
