; ModuleID = 'source-C-CXX/59/946.c'
source_filename = "source-C-CXX/59/946.c"
target datalayout = "e-m:e-p270:32:32-p271:32:32-p272:64:64-i64:64-f80:128-n8:16:32:64-S128"
target triple = "x86_64-pc-linux-gnu"

@.str = private unnamed_addr constant [3 x i8] c"%d\00", align 1
@.str.1 = private unnamed_addr constant [6 x i8] c"empty\00", align 1
@.str.2 = private unnamed_addr constant [7 x i8] c"%d %d\0A\00", align 1

; Function Attrs: nofree nounwind sspstrong uwtable
define dso_local i32 @main() local_unnamed_addr #0 {
  %1 = alloca i32, align 4
  %2 = bitcast i32* %1 to i8*
  call void @llvm.lifetime.start.p0i8(i64 4, i8* nonnull %2) #3
  %3 = call i32 (i8*, ...) @__isoc99_scanf(i8* getelementptr inbounds ([3 x i8], [3 x i8]* @.str, i64 0, i64 0), i32* nonnull %1)
  %4 = load i32, i32* %1, align 4, !tbaa !5
  %5 = icmp slt i32 %4, 5
  br i1 %5, label %6, label %8

6:                                                ; preds = %0
  %7 = call i32 (i8*, ...) @printf(i8* nonnull dereferenceable(1) getelementptr inbounds ([6 x i8], [6 x i8]* @.str.1, i64 0, i64 0))
  br label %36

8:                                                ; preds = %0, %31
  %9 = phi i32 [ %32, %31 ], [ %4, %0 ]
  %10 = phi i32 [ %33, %31 ], [ 3, %0 ]
  %11 = add nsw i32 %10, -1
  br label %15

12:                                               ; preds = %15
  %13 = add nsw i32 %16, -1
  %14 = icmp sgt i32 %16, 2
  br i1 %14, label %15, label %19, !llvm.loop !9

15:                                               ; preds = %8, %12
  %16 = phi i32 [ %13, %12 ], [ %11, %8 ]
  %17 = srem i32 %10, %16
  %18 = icmp eq i32 %17, 0
  br i1 %18, label %31, label %12

19:                                               ; preds = %12
  %20 = add nuw nsw i32 %10, 2
  br label %24

21:                                               ; preds = %24
  %22 = add nsw i32 %25, -1
  %23 = icmp sgt i32 %25, 2
  br i1 %23, label %24, label %28, !llvm.loop !11

24:                                               ; preds = %19, %21
  %25 = phi i32 [ %22, %21 ], [ %11, %19 ]
  %26 = srem i32 %20, %25
  %27 = icmp eq i32 %26, 0
  br i1 %27, label %31, label %21

28:                                               ; preds = %21
  %29 = call i32 (i8*, ...) @printf(i8* nonnull dereferenceable(1) getelementptr inbounds ([7 x i8], [7 x i8]* @.str.2, i64 0, i64 0), i32 %10, i32 %20)
  %30 = load i32, i32* %1, align 4, !tbaa !5
  br label %31

31:                                               ; preds = %15, %24, %28
  %32 = phi i32 [ %30, %28 ], [ %9, %24 ], [ %9, %15 ]
  %33 = add nuw nsw i32 %10, 1
  %34 = add nsw i32 %32, -2
  %35 = icmp slt i32 %10, %34
  br i1 %35, label %8, label %36, !llvm.loop !12

36:                                               ; preds = %31, %6
  call void @llvm.lifetime.end.p0i8(i64 4, i8* nonnull %2) #3
  ret i32 0
}

; Function Attrs: argmemonly mustprogress nofree nosync nounwind willreturn
declare void @llvm.lifetime.start.p0i8(i64 immarg, i8* nocapture) #1

; Function Attrs: nofree nounwind
declare noundef i32 @__isoc99_scanf(i8* nocapture noundef readonly, ...) local_unnamed_addr #2

; Function Attrs: nofree nounwind
declare noundef i32 @printf(i8* nocapture noundef readonly, ...) local_unnamed_addr #2

; Function Attrs: argmemonly mustprogress nofree nosync nounwind willreturn
declare void @llvm.lifetime.end.p0i8(i64 immarg, i8* nocapture) #1


!llvm.module.flags = !{!0, !1, !2, !3}
!llvm.ident = !{!4}

!0 = !{i32 1, !"wchar_size", i32 4}
!1 = !{i32 7, !"PIC Level", i32 2}
!2 = !{i32 7, !"PIE Level", i32 2}
!3 = !{i32 7, !"uwtable", i32 1}
!4 = !{!"clang version 13.0.0"}
!5 = !{!6, !6, i64 0}
!6 = !{!"int", !7, i64 0}
!7 = !{!"omnipotent char", !8, i64 0}
!8 = !{!"Simple C/C++ TBAA"}
!9 = distinct !{!9, !10}
!10 = !{!"llvm.loop.mustprogress"}
!11 = distinct !{!11, !10}
!12 = distinct !{!12, !10}
